target datalayout = "e-m:e-p270:32:32-p271:32:32-p272:64:64-i64:64-i128:128-f80:128-n8:16:32:64-S128"
target triple = "x86_64-pc-linux-gnu"

; Function Attrs: nounwind uwtable
define internal float @avifToLinearPQ(float noundef %0) #0 {
  %2 = alloca float, align 4
  %3 = alloca float, align 4
  %4 = alloca float, align 4
  %5 = alloca float, align 4
  %6 = alloca float, align 4
  %7 = alloca float, align 4
  store float %0, ptr %3, align 4
  %8 = load float, ptr %3, align 4
  %9 = fcmp ogt float %8, 0.000000e+00
  br i1 %9, label %10, label %38

10:                                               ; preds = %1
  %11 = load float, ptr %3, align 4
  %12 = call float @powf(float noundef %11, float noundef 0x3F89F9B580000000) #4
  store float %12, ptr %4, align 4
  %13 = load float, ptr %4, align 4
  %14 = fsub float %13, 0x3FEAC00000000000
  %15 = fcmp ogt float %14, 0.000000e+00
  br i1 %15, label %16, label %19

16:                                               ; preds = %10
  %17 = load float, ptr %4, align 4
  %18 = fsub float %17, 0x3FEAC00000000000
  br label %20

19:                                               ; preds = %10
  br label %20

20:                                               ; preds = %19, %16
  %21 = phi float [ %18, %16 ], [ 0.000000e+00, %19 ]
  store float %21, ptr %5, align 4
  %22 = load float, ptr %4, align 4
  %23 = call float @llvm.fmuladd.f32(float -1.868750e+01, float %22, float 0x4032DA0000000000)
  %24 = fcmp ogt float %23, 0x3810000000000000
  br i1 %24, label %25, label %28

25:                                               ; preds = %20
  %26 = load float, ptr %4, align 4
  %27 = call float @llvm.fmuladd.f32(float -1.868750e+01, float %26, float 0x4032DA0000000000)
  br label %29

28:                                               ; preds = %20
  br label %29

29:                                               ; preds = %28, %25
  %30 = phi float [ %27, %25 ], [ 0x3810000000000000, %28 ]
  store float %30, ptr %6, align 4
  %31 = load float, ptr %5, align 4
  %32 = load float, ptr %6, align 4
  %33 = fdiv float %31, %32
  %34 = call float @powf(float noundef %33, float noundef 0x40191C0D60000000) #4
  store float %34, ptr %7, align 4
  %35 = load float, ptr %7, align 4
  %36 = fmul float %35, 1.000000e+04
  %37 = fdiv float %36, 2.030000e+02
  store float %37, ptr %2, align 4
  br label %39

38:                                               ; preds = %1
  store float 0.000000e+00, ptr %2, align 4
  br label %39

39:                                               ; preds = %38, %29
  %40 = load float, ptr %2, align 4
  ret float %40
}