; Function Attrs: mustprogress nofree nounwind willreturn memory(write) uwtable
define internal float @avifToLinearPQ(float noundef %0) #5 {
  %2 = fcmp ogt float %0, 0.000000e+00
  br i1 %2, label %3, label %15

3:                                                ; preds = %1
  %4 = tail call float @powf(float noundef %0, float noundef 0x3F89F9B580000000) #9
  %5 = fadd float %4, 0xBFEAC00000000000
  %6 = fcmp ogt float %5, 0.000000e+00
  %7 = select i1 %6, float %5, float 0.000000e+00
  %8 = tail call float @llvm.fmuladd.f32(float %4, float -1.868750e+01, float 0x4032DA0000000000)
  %9 = fcmp ogt float %8, 0x3810000000000000
  %10 = select i1 %9, float %8, float 0x3810000000000000
  %11 = fdiv float %7, %10
  %12 = tail call float @powf(float noundef %11, float noundef 0x40191C0D60000000) #9
  %13 = fmul float %12, 1.000000e+04
  %14 = fdiv float %13, 2.030000e+02
  br label %15

15:                                               ; preds = %1, %3
  %.0 = phi float [ %14, %3 ], [ 0.000000e+00, %1 ]
  ret float %.0
}